target datalayout = "e-m:e-p270:32:32-p271:32:32-p272:64:64-i64:64-i128:128-f80:128-n8:16:32:64-S128"
target triple = "x86_64-pc-linux-gnu"

%struct.TLS1_PRF = type { ptr, ptr, ptr, ptr, i64, ptr, i64 }

@.str = private unnamed_addr constant [53 x i8] c"../openssl/providers/implementations/kdfs/tls1_prf.c\00", align 1

; Function Attrs: nounwind uwtable
define internal void @kdf_tls1_prf_reset(ptr noundef %0) #0 {
  %2 = alloca ptr, align 8
  %3 = alloca ptr, align 8
  %4 = alloca ptr, align 8
  store ptr %0, ptr %2, align 8, !tbaa !3
  call void @llvm.lifetime.start.p0(i64 8, ptr %3) #8
  %5 = load ptr, ptr %2, align 8, !tbaa !3
  store ptr %5, ptr %3, align 8, !tbaa !3
  call void @llvm.lifetime.start.p0(i64 8, ptr %4) #8
  %6 = load ptr, ptr %3, align 8, !tbaa !3
  %7 = getelementptr inbounds nuw %struct.TLS1_PRF, ptr %6, i32 0, i32 0
  %8 = load ptr, ptr %7, align 8, !tbaa !7
  store ptr %8, ptr %4, align 8, !tbaa !3
  %9 = load ptr, ptr %3, align 8, !tbaa !3
  %10 = getelementptr inbounds nuw %struct.TLS1_PRF, ptr %9, i32 0, i32 1
  %11 = load ptr, ptr %10, align 8, !tbaa !12
  call void @EVP_MAC_CTX_free(ptr noundef %11)
  %12 = load ptr, ptr %3, align 8, !tbaa !3
  %13 = getelementptr inbounds nuw %struct.TLS1_PRF, ptr %12, i32 0, i32 2
  %14 = load ptr, ptr %13, align 8, !tbaa !13
  call void @EVP_MAC_CTX_free(ptr noundef %14)
  %15 = load ptr, ptr %3, align 8, !tbaa !3
  %16 = getelementptr inbounds nuw %struct.TLS1_PRF, ptr %15, i32 0, i32 3
  %17 = load ptr, ptr %16, align 8, !tbaa !14
  %18 = load ptr, ptr %3, align 8, !tbaa !3
  %19 = getelementptr inbounds nuw %struct.TLS1_PRF, ptr %18, i32 0, i32 4
  %20 = load i64, ptr %19, align 8, !tbaa !15
  call void @CRYPTO_clear_free(ptr noundef %17, i64 noundef %20, ptr noundef @.str, i32 noundef 144)
  %21 = load ptr, ptr %3, align 8, !tbaa !3
  %22 = getelementptr inbounds nuw %struct.TLS1_PRF, ptr %21, i32 0, i32 5
  %23 = load ptr, ptr %22, align 8, !tbaa !16
  %24 = load ptr, ptr %3, align 8, !tbaa !3
  %25 = getelementptr inbounds nuw %struct.TLS1_PRF, ptr %24, i32 0, i32 6
  %26 = load i64, ptr %25, align 8, !tbaa !17
  call void @CRYPTO_clear_free(ptr noundef %23, i64 noundef %26, ptr noundef @.str, i32 noundef 145)
  %27 = load ptr, ptr %3, align 8, !tbaa !3
  call void @llvm.memset.p0.i64(ptr align 8 %27, i8 0, i64 56, i1 false)
  %28 = load ptr, ptr %4, align 8, !tbaa !3
  %29 = load ptr, ptr %3, align 8, !tbaa !3
  %30 = getelementptr inbounds nuw %struct.TLS1_PRF, ptr %29, i32 0, i32 0
  store ptr %28, ptr %30, align 8, !tbaa !7
  call void @llvm.lifetime.end.p0(i64 8, ptr %4) #8
  call void @llvm.lifetime.end.p0(i64 8, ptr %3) #8
  ret void
}