; Function Attrs: nounwind uwtable
define internal void @kdf_tls1_prf_reset(ptr noundef captures(none) %0) #0 {
  %2 = load ptr, ptr %0, align 8, !tbaa !3
  %3 = getelementptr inbounds nuw i8, ptr %0, i64 8
  %4 = load ptr, ptr %3, align 8, !tbaa !11
  tail call void @EVP_MAC_CTX_free(ptr noundef %4) #7
  %5 = getelementptr inbounds nuw i8, ptr %0, i64 16
  %6 = load ptr, ptr %5, align 8, !tbaa !12
  tail call void @EVP_MAC_CTX_free(ptr noundef %6) #7
  %7 = getelementptr inbounds nuw i8, ptr %0, i64 24
  %8 = load ptr, ptr %7, align 8, !tbaa !13
  %9 = getelementptr inbounds nuw i8, ptr %0, i64 32
  %10 = load i64, ptr %9, align 8, !tbaa !14
  tail call void @CRYPTO_clear_free(ptr noundef %8, i64 noundef %10, ptr noundef nonnull @.str, i32 noundef 144) #7
  %11 = getelementptr inbounds nuw i8, ptr %0, i64 40
  %12 = load ptr, ptr %11, align 8, !tbaa !15
  %13 = getelementptr inbounds nuw i8, ptr %0, i64 48
  %14 = load i64, ptr %13, align 8, !tbaa !16
  tail call void @CRYPTO_clear_free(ptr noundef %12, i64 noundef %14, ptr noundef nonnull @.str, i32 noundef 145) #7
  %15 = getelementptr inbounds nuw i8, ptr %0, i64 8
  tail call void @llvm.memset.p0.i64(ptr noundef nonnull align 8 dereferenceable(56) %15, i8 0, i64 48, i1 false)
  store ptr %2, ptr %0, align 8, !tbaa !3
  ret void
}